target datalayout = "e-m:e-p270:32:32-p271:32:32-p272:64:64-i64:64-i128:128-f80:128-n8:16:32:64-S128"
target triple = "x86_64-pc-linux-gnu"

%struct.lua_State = type { %struct.GCRef, i8, i8, i8, i8, %struct.MRef, %struct.GCRef, ptr, ptr, %struct.MRef, %struct.MRef, %struct.GCRef, %struct.GCRef, ptr, i32 }
%struct.MRef = type { i64 }
%struct.GCRef = type { i64 }
%union.TValue = type { i64 }
%struct.lua_Debug = type { i32, ptr, ptr, ptr, ptr, i32, i32, i32, i32, [60 x i8], i32 }

; Function Attrs: nounwind uwtable
define internal ptr @getthread(ptr noundef %0, ptr noundef %1) #0 {
  %3 = alloca ptr, align 8
  %4 = alloca ptr, align 8
  %5 = alloca ptr, align 8
  store ptr %0, ptr %4, align 8, !tbaa !4
  store ptr %1, ptr %5, align 8, !tbaa !46
  %6 = load ptr, ptr %4, align 8, !tbaa !4
  %7 = getelementptr inbounds nuw %struct.lua_State, ptr %6, i32 0, i32 7
  %8 = load ptr, ptr %7, align 8, !tbaa !18
  %9 = load ptr, ptr %4, align 8, !tbaa !4
  %10 = getelementptr inbounds nuw %struct.lua_State, ptr %9, i32 0, i32 8
  %11 = load ptr, ptr %10, align 8, !tbaa !9
  %12 = icmp ult ptr %8, %11
  br i1 %12, label %13, label %30

13:                                               ; preds = %2
  %14 = load ptr, ptr %4, align 8, !tbaa !4
  %15 = getelementptr inbounds nuw %struct.lua_State, ptr %14, i32 0, i32 7
  %16 = load ptr, ptr %15, align 8, !tbaa !18
  %17 = load i64, ptr %16, align 8, !tbaa !17
  %18 = ashr i64 %17, 47
  %19 = trunc i64 %18 to i32
  %20 = icmp eq i32 %19, -7
  br i1 %20, label %21, label %30

21:                                               ; preds = %13
  %22 = load ptr, ptr %5, align 8, !tbaa !46
  store i32 1, ptr %22, align 4, !tbaa !19
  %23 = load ptr, ptr %4, align 8, !tbaa !4
  %24 = getelementptr inbounds nuw %struct.lua_State, ptr %23, i32 0, i32 7
  %25 = load ptr, ptr %24, align 8, !tbaa !18
  %26 = getelementptr inbounds nuw %struct.GCRef, ptr %25, i32 0, i32 0
  %27 = load i64, ptr %26, align 8, !tbaa !17
  %28 = and i64 %27, 140737488355327
  %29 = inttoptr i64 %28 to ptr
  store ptr %29, ptr %3, align 8
  br label %33

30:                                               ; preds = %13, %2
  %31 = load ptr, ptr %5, align 8, !tbaa !46
  store i32 0, ptr %31, align 4, !tbaa !19
  %32 = load ptr, ptr %4, align 8, !tbaa !4
  store ptr %32, ptr %3, align 8
  br label %33

33:                                               ; preds = %30, %21
  %34 = load ptr, ptr %3, align 8
  ret ptr %34
}

; Function Attrs: nounwind uwtable
define internal i32 @lj_cf_debug_getlocal(ptr noundef %0) #0 {
  %2 = alloca i32, align 4
  %3 = alloca ptr, align 8
  %4 = alloca i32, align 4
  %5 = alloca ptr, align 8
  %6 = alloca %struct.lua_Debug, align 8
  %7 = alloca ptr, align 8
  %8 = alloca i32, align 4
  %9 = alloca i32, align 4
  store ptr %0, ptr %3, align 8, !tbaa !4
  call void @llvm.lifetime.start.p0(i64 4, ptr %4) #8
  call void @llvm.lifetime.start.p0(i64 8, ptr %5) #8
  %10 = load ptr, ptr %3, align 8, !tbaa !4
  %11 = call ptr @getthread(ptr noundef %10, ptr noundef %4)
  store ptr %11, ptr %5, align 8, !tbaa !4
  call void @llvm.lifetime.start.p0(i64 120, ptr %6) #8
  call void @llvm.lifetime.start.p0(i64 8, ptr %7) #8
  call void @llvm.lifetime.start.p0(i64 4, ptr %8) #8
  %12 = load ptr, ptr %3, align 8, !tbaa !4
  %13 = load i32, ptr %4, align 4, !tbaa !19
  %14 = add nsw i32 %13, 2
  %15 = call i32 @lj_lib_checkint(ptr noundef %12, i32 noundef %14)
  store i32 %15, ptr %8, align 4, !tbaa !19
  %16 = load ptr, ptr %3, align 8, !tbaa !4
  %17 = getelementptr inbounds nuw %struct.lua_State, ptr %16, i32 0, i32 7
  %18 = load ptr, ptr %17, align 8, !tbaa !18
  %19 = load i32, ptr %4, align 4, !tbaa !19
  %20 = sext i32 %19 to i64
  %21 = getelementptr inbounds %union.TValue, ptr %18, i64 %20
  %22 = load i64, ptr %21, align 8, !tbaa !17
  %23 = ashr i64 %22, 47
  %24 = trunc i64 %23 to i32
  %25 = icmp eq i32 %24, -9
  br i1 %25, label %26, label %40

26:                                               ; preds = %1
  %27 = load ptr, ptr %3, align 8, !tbaa !4
  %28 = getelementptr inbounds nuw %struct.lua_State, ptr %27, i32 0, i32 7
  %29 = load ptr, ptr %28, align 8, !tbaa !18
  %30 = load i32, ptr %4, align 4, !tbaa !19
  %31 = sext i32 %30 to i64
  %32 = getelementptr inbounds %union.TValue, ptr %29, i64 %31
  %33 = getelementptr inbounds %union.TValue, ptr %32, i64 1
  %34 = load ptr, ptr %3, align 8, !tbaa !4
  %35 = getelementptr inbounds nuw %struct.lua_State, ptr %34, i32 0, i32 8
  store ptr %33, ptr %35, align 8, !tbaa !9
  %36 = load ptr, ptr %3, align 8, !tbaa !4
  %37 = load ptr, ptr %3, align 8, !tbaa !4
  %38 = load i32, ptr %8, align 4, !tbaa !19
  %39 = call ptr @lua_getlocal(ptr noundef %37, ptr noundef null, i32 noundef %38)
  call void @lua_pushstring(ptr noundef %36, ptr noundef %39)
  store i32 1, ptr %2, align 4
  store i32 1, ptr %9, align 4
  br label %69

40:                                               ; preds = %1
  %41 = load ptr, ptr %5, align 8, !tbaa !4
  %42 = load ptr, ptr %3, align 8, !tbaa !4
  %43 = load i32, ptr %4, align 4, !tbaa !19
  %44 = add nsw i32 %43, 1
  %45 = call i32 @lj_lib_checkint(ptr noundef %42, i32 noundef %44)
  %46 = call i32 @lua_getstack(ptr noundef %41, i32 noundef %45, ptr noundef %6)
  %47 = icmp ne i32 %46, 0
  br i1 %47, label %52, label %48

48:                                               ; preds = %40
  %49 = load ptr, ptr %3, align 8, !tbaa !4
  %50 = load i32, ptr %4, align 4, !tbaa !19
  %51 = add nsw i32 %50, 1
  call void @lj_err_arg(ptr noundef %49, i32 noundef %51, i32 noundef 1151) #7
  unreachable

52:                                               ; preds = %40
  %53 = load ptr, ptr %5, align 8, !tbaa !4
  %54 = load i32, ptr %8, align 4, !tbaa !19
  %55 = call ptr @lua_getlocal(ptr noundef %53, ptr noundef %6, i32 noundef %54)
  store ptr %55, ptr %7, align 8, !tbaa !20
  %56 = load ptr, ptr %7, align 8, !tbaa !20
  %57 = icmp ne ptr %56, null
  br i1 %57, label %58, label %64

58:                                               ; preds = %52
  %59 = load ptr, ptr %5, align 8, !tbaa !4
  %60 = load ptr, ptr %3, align 8, !tbaa !4
  call void @lua_xmove(ptr noundef %59, ptr noundef %60, i32 noundef 1)
  %61 = load ptr, ptr %3, align 8, !tbaa !4
  %62 = load ptr, ptr %7, align 8, !tbaa !20
  call void @lua_pushstring(ptr noundef %61, ptr noundef %62)
  %63 = load ptr, ptr %3, align 8, !tbaa !4
  call void @lua_pushvalue(ptr noundef %63, i32 noundef -2)
  store i32 2, ptr %2, align 4
  store i32 1, ptr %9, align 4
  br label %69

64:                                               ; preds = %52
  %65 = load ptr, ptr %3, align 8, !tbaa !4
  %66 = getelementptr inbounds nuw %struct.lua_State, ptr %65, i32 0, i32 8
  %67 = load ptr, ptr %66, align 8, !tbaa !9
  %68 = getelementptr inbounds %union.TValue, ptr %67, i64 -1
  store i64 -1, ptr %68, align 8, !tbaa !17
  store i32 1, ptr %2, align 4
  store i32 1, ptr %9, align 4
  br label %69

69:                                               ; preds = %64, %58, %26
  call void @llvm.lifetime.end.p0(i64 4, ptr %8) #8
  call void @llvm.lifetime.end.p0(i64 8, ptr %7) #8
  call void @llvm.lifetime.end.p0(i64 120, ptr %6) #8
  call void @llvm.lifetime.end.p0(i64 8, ptr %5) #8
  call void @llvm.lifetime.end.p0(i64 4, ptr %4) #8
  %70 = load i32, ptr %2, align 4
  ret i32 %70
}