; Function Attrs: nounwind uwtable
define internal range(i32 1, 3) i32 @lj_cf_debug_getlocal(ptr noundef %0) #0 {
  %2 = alloca %struct.lua_Debug, align 8
  %3 = getelementptr inbounds nuw i8, ptr %0, i64 32
  %4 = load ptr, ptr %3, align 8, !tbaa !16
  %5 = getelementptr inbounds nuw i8, ptr %0, i64 40
  %6 = load ptr, ptr %5, align 8, !tbaa !4
  %7 = icmp ult ptr %4, %6
  br i1 %7, label %8, label %getthread.exit

8:                                                ; preds = %1
  %9 = load i64, ptr %4, align 8, !tbaa !15
  %.mask.i = and i64 %9, -140737488355328
  %10 = icmp eq i64 %.mask.i, -985162418487296
  br i1 %10, label %11, label %getthread.exit

11:                                               ; preds = %8
  %12 = and i64 %9, 140737488355327
  %13 = inttoptr i64 %12 to ptr
  br label %getthread.exit

getthread.exit:                                   ; preds = %1, %8, %11
  %.024 = phi i32 [ 1, %11 ], [ 0, %8 ], [ 0, %1 ]
  %.0.i = phi ptr [ %13, %11 ], [ %0, %8 ], [ %0, %1 ]
  call void @llvm.lifetime.start.p0(i64 120, ptr nonnull %2) #10
  %14 = or disjoint i32 %.024, 2
  %15 = tail call i32 @lj_lib_checkint(ptr noundef nonnull %0, i32 noundef %14) #10
  %16 = load ptr, ptr %3, align 8, !tbaa !16
  %17 = zext nneg i32 %.024 to i64
  %18 = getelementptr inbounds nuw %union.TValue, ptr %16, i64 %17
  %19 = load i64, ptr %18, align 8, !tbaa !15
  %.mask = and i64 %19, -140737488355328
  %20 = icmp eq i64 %.mask, -1266637395197952
  br i1 %20, label %21, label %24

21:                                               ; preds = %getthread.exit
  %22 = getelementptr inbounds nuw i8, ptr %18, i64 8
  store ptr %22, ptr %5, align 8, !tbaa !4
  %23 = tail call ptr @lua_getlocal(ptr noundef nonnull %0, ptr noundef null, i32 noundef %15) #10
  tail call void @lua_pushstring(ptr noundef nonnull %0, ptr noundef %23) #10
  br label %35

24:                                               ; preds = %getthread.exit
  %25 = add nuw nsw i32 %.024, 1
  %26 = tail call i32 @lj_lib_checkint(ptr noundef nonnull %0, i32 noundef %25) #10
  %27 = call i32 @lua_getstack(ptr noundef %.0.i, i32 noundef %26, ptr noundef nonnull %2) #10
  %.not = icmp eq i32 %27, 0
  br i1 %.not, label %28, label %29

28:                                               ; preds = %24
  call void @lj_err_arg(ptr noundef nonnull %0, i32 noundef %25, i32 noundef 1151) #11
  unreachable

29:                                               ; preds = %24
  %30 = call ptr @lua_getlocal(ptr noundef %.0.i, ptr noundef nonnull %2, i32 noundef %15) #10
  %.not21 = icmp eq ptr %30, null
  br i1 %.not21, label %32, label %31

31:                                               ; preds = %29
  call void @lua_xmove(ptr noundef %.0.i, ptr noundef nonnull %0, i32 noundef 1) #10
  call void @lua_pushstring(ptr noundef nonnull %0, ptr noundef nonnull %30) #10
  call void @lua_pushvalue(ptr noundef nonnull %0, i32 noundef -2) #10
  br label %35

32:                                               ; preds = %29
  %33 = load ptr, ptr %5, align 8, !tbaa !4
  %34 = getelementptr inbounds i8, ptr %33, i64 -8
  store i64 -1, ptr %34, align 8, !tbaa !15
  br label %35

35:                                               ; preds = %32, %31, %21
  %.0 = phi i32 [ 1, %21 ], [ 2, %31 ], [ 1, %32 ]
  call void @llvm.lifetime.end.p0(i64 120, ptr nonnull %2) #10
  ret i32 %.0
}